; Function Attrs: mustprogress uwtable
define internal fastcc void @_ZN12_GLOBAL__N_123propagate_values_tacticC2ER11ast_managerRK10params_ref(ptr noundef nonnull align 8 dereferenceable(120) initializes((0, 12), (16, 24)) %0, ptr noundef nonnull align 8 dereferenceable(976) %1, ptr noundef nonnull align 8 dereferenceable(8) %2) unnamed_addr #3 align 2 personality ptr @__gxx_personality_v0 {
  %4 = alloca %struct.tactic_params, align 8
  %5 = getelementptr inbounds nuw i8, ptr %0, i64 8
  store i32 0, ptr %5, align 8, !tbaa !3
  store ptr getelementptr inbounds nuw inrange(-16, 192) (i8, ptr @_ZTVN12_GLOBAL__N_123propagate_values_tacticE, i64 16), ptr %0, align 8, !tbaa !9
  %6 = getelementptr inbounds nuw i8, ptr %0, i64 16
  store ptr %1, ptr %6, align 8, !tbaa !11
  %7 = getelementptr inbounds nuw i8, ptr %0, i64 24
  tail call void @_ZN11th_rewriterC1ER11ast_managerRK10params_ref(ptr noundef nonnull align 8 dereferenceable(16) %7, ptr noundef nonnull align 8 dereferenceable(976) %1, ptr noundef nonnull align 8 dereferenceable(8) %2)
  %8 = getelementptr inbounds nuw i8, ptr %0, i64 40
  %9 = getelementptr inbounds nuw i8, ptr %0, i64 56
  tail call void @llvm.memset.p0.i64(ptr noundef nonnull align 8 dereferenceable(16) %8, i8 0, i64 16, i1 false)
  store ptr %1, ptr %9, align 8, !tbaa !11
  %10 = getelementptr inbounds nuw i8, ptr %0, i64 64
  store i8 1, ptr %10, align 8, !tbaa !14
  %11 = getelementptr inbounds nuw i8, ptr %0, i64 65
  store i8 1, ptr %11, align 1, !tbaa !27
  %12 = getelementptr inbounds nuw i8, ptr %0, i64 66
  store i8 0, ptr %12, align 2, !tbaa !28
  %13 = getelementptr inbounds nuw i8, ptr %0, i64 72
  %14 = ptrtoint ptr %1 to i64
  store i64 %14, ptr %13, align 8, !tbaa !11
  %15 = getelementptr inbounds nuw i8, ptr %0, i64 80
  tail call void @llvm.memset.p0.i64(ptr noundef nonnull align 8 dereferenceable(16) %15, i8 0, i64 16, i1 false)
  %16 = getelementptr inbounds nuw i8, ptr %0, i64 112
  invoke void @_ZN10params_refC1ERKS_(ptr noundef nonnull align 8 dereferenceable(8) %16, ptr noundef nonnull align 8 dereferenceable(8) %2)
          to label %17 unwind label %27

17:                                               ; preds = %3
  call void @llvm.lifetime.start.p0(i64 16, ptr nonnull %4) #20
  store ptr %2, ptr %4, align 8, !tbaa !29
  %18 = getelementptr inbounds nuw i8, ptr %4, i64 8
  invoke void @_ZN7gparams10get_moduleEPKc(ptr dead_on_unwind nonnull writable sret(%class.params_ref) align 8 %18, ptr noundef nonnull @.str.5)
          to label %.noexc unwind label %29

.noexc:                                           ; preds = %17
  %19 = load ptr, ptr %4, align 8, !tbaa !31
  %20 = invoke noundef i32 @_ZNK10params_ref8get_uintEPKcRKS_j(ptr noundef nonnull align 8 dereferenceable(8) %19, ptr noundef nonnull @.str.6, ptr noundef nonnull align 8 dereferenceable(8) %18, i32 noundef 4)
          to label %_ZNK13tactic_params27propagate_values_max_roundsEv.exit.i unwind label %22

_ZNK13tactic_params27propagate_values_max_roundsEv.exit.i: ; preds = %.noexc
  %21 = invoke noundef i32 @_ZNK10params_ref8get_uintEPKcj(ptr noundef nonnull align 8 dereferenceable(8) %2, ptr noundef nonnull @.str.4, i32 noundef %20)
          to label %24 unwind label %22

22:                                               ; preds = %_ZNK13tactic_params27propagate_values_max_roundsEv.exit.i, %.noexc
  %23 = landingpad { ptr, i32 }
          cleanup
  call void @_ZN10params_refD1Ev(ptr noundef nonnull align 8 dereferenceable(8) %18) #20
  call void @llvm.lifetime.end.p0(i64 16, ptr nonnull %4) #20
  br label %.body

24:                                               ; preds = %_ZNK13tactic_params27propagate_values_max_roundsEv.exit.i
  %25 = getelementptr inbounds nuw i8, ptr %0, i64 100
  store i32 %21, ptr %25, align 4, !tbaa !35
  call void @_ZN10params_refD1Ev(ptr noundef nonnull align 8 dereferenceable(8) %18) #20
  call void @llvm.lifetime.end.p0(i64 16, ptr nonnull %4) #20
  invoke void @_ZN11th_rewriter15set_flat_and_orEb(ptr noundef nonnull align 8 dereferenceable(16) %7, i1 noundef zeroext false)
          to label %26 unwind label %29

26:                                               ; preds = %24
  ret void

27:                                               ; preds = %3
  %28 = landingpad { ptr, i32 }
          cleanup
  br label %31

29:                                               ; preds = %17, %24
  %30 = landingpad { ptr, i32 }
          cleanup
  br label %.body

.body:                                            ; preds = %22, %29
  %eh.lpad-body = phi { ptr, i32 } [ %30, %29 ], [ %23, %22 ]
  call void @_ZN10params_refD1Ev(ptr noundef nonnull align 8 dereferenceable(8) %16) #20
  br label %31

31:                                               ; preds = %.body, %27
  %.pn = phi { ptr, i32 } [ %eh.lpad-body, %.body ], [ %28, %27 ]
  call void @_ZN11shared_occsD1Ev(ptr noundef nonnull align 8 dereferenceable(40) %9) #20
  call void @_ZN10scoped_ptrI17expr_substitutionED2Ev(ptr noundef nonnull align 8 dereferenceable(8) %8) #20
  call void @_ZN11th_rewriterD1Ev(ptr noundef nonnull align 8 dereferenceable(16) %7) #20
  resume { ptr, i32 } %.pn
}